; Function Attrs: nounwind uwtable
define ptr @Gia_ManSupportAndTest(ptr noundef %0) local_unnamed_addr #0 {
  tail call void @Gia_ManFillValue(ptr noundef %0) #17
  %2 = getelementptr i8, ptr %0, i64 24
  %.val = load i32, ptr %2, align 8, !tbaa !28
  %3 = tail call ptr @Gia_ManStart(i32 noundef %.val) #17
  %4 = load ptr, ptr %0, align 8, !tbaa !62
  %.not.i = icmp eq ptr %4, null
  br i1 %.not.i, label %Abc_UtilStrsav.exit, label %5

5:                                                ; preds = %1
  %6 = tail call i64 @strlen(ptr noundef nonnull readonly dereferenceable(1) %4) #19
  %7 = add i64 %6, 1
  %8 = tail call noalias ptr @malloc(i64 noundef %7) #16
  %9 = tail call ptr @strcpy(ptr noundef nonnull dereferenceable(1) %8, ptr noundef nonnull readonly dereferenceable(1) %4) #17
  br label %Abc_UtilStrsav.exit

Abc_UtilStrsav.exit:                              ; preds = %1, %5
  %10 = phi ptr [ %8, %5 ], [ null, %1 ]
  store ptr %10, ptr %3, align 8, !tbaa !62
  %11 = getelementptr inbounds nuw i8, ptr %0, i64 8
  %12 = load ptr, ptr %11, align 8, !tbaa !63
  %.not.i43 = icmp eq ptr %12, null
  br i1 %.not.i43, label %Abc_UtilStrsav.exit44, label %13

13:                                               ; preds = %Abc_UtilStrsav.exit
  %14 = tail call i64 @strlen(ptr noundef nonnull readonly dereferenceable(1) %12) #19
  %15 = add i64 %14, 1
  %16 = tail call noalias ptr @malloc(i64 noundef %15) #16
  %17 = tail call ptr @strcpy(ptr noundef nonnull dereferenceable(1) %16, ptr noundef nonnull readonly dereferenceable(1) %12) #17
  br label %Abc_UtilStrsav.exit44

Abc_UtilStrsav.exit44:                            ; preds = %Abc_UtilStrsav.exit, %13
  %18 = phi ptr [ %16, %13 ], [ null, %Abc_UtilStrsav.exit ]
  %19 = getelementptr inbounds nuw i8, ptr %3, i64 8
  store ptr %18, ptr %19, align 8, !tbaa !63
  tail call void @Gia_ManHashAlloc(ptr noundef nonnull %3) #17
  %20 = getelementptr i8, ptr %0, i64 32
  %.val39 = load ptr, ptr %20, align 8, !tbaa !50
  %21 = getelementptr inbounds nuw i8, ptr %.val39, i64 8
  store i32 0, ptr %21, align 4, !tbaa !64
  %22 = tail call ptr @Gia_ManSuppStart(ptr noundef nonnull %3)
  %23 = load i32, ptr %2, align 8, !tbaa !28
  %24 = icmp sgt i32 %23, 1
  br i1 %24, label %.lr.ph, label %.critedge

.lr.ph:                                           ; preds = %Abc_UtilStrsav.exit44, %68
  %indvars.iv = phi i64 [ %indvars.iv.next, %68 ], [ 1, %Abc_UtilStrsav.exit44 ]
  %.val37 = load ptr, ptr %20, align 8, !tbaa !50
  %25 = getelementptr inbounds nuw %struct.Gia_Obj_t_, ptr %.val37, i64 %indvars.iv
  %.val40 = load i64, ptr %25, align 4
  %26 = and i64 %.val40, 2147483648
  %.not.i45 = icmp eq i64 %26, 0
  %27 = and i64 %.val40, 536870911
  %28 = icmp ne i64 %27, 536870911
  %narrow.i = and i1 %.not.i45, %28
  br i1 %narrow.i, label %29, label %47

29:                                               ; preds = %.lr.ph
  %30 = sub nsw i64 0, %27
  %31 = getelementptr inbounds %struct.Gia_Obj_t_, ptr %25, i64 %30, i32 1
  %32 = load i32, ptr %31, align 4, !tbaa !64
  %33 = trunc i64 %.val40 to i32
  %34 = lshr i32 %33, 29
  %35 = and i32 %34, 1
  %36 = xor i32 %32, %35
  %37 = lshr i64 %.val40, 32
  %38 = and i64 %37, 536870911
  %39 = sub nsw i64 0, %38
  %40 = getelementptr inbounds %struct.Gia_Obj_t_, ptr %25, i64 %39, i32 1
  %41 = load i32, ptr %40, align 4, !tbaa !64
  %42 = lshr i64 %.val40, 61
  %43 = trunc nuw nsw i64 %42 to i32
  %44 = and i32 %43, 1
  %45 = xor i32 %41, %44
  %46 = tail call i32 @Gia_ManSupportAnd(ptr noundef %22, i32 noundef %36, i32 noundef %45)
  br label %.sink.split

47:                                               ; preds = %.lr.ph
  %48 = and i64 %.val40, 2684354559
  %narrow.i46.not = icmp eq i64 %48, 2684354559
  br i1 %narrow.i46.not, label %49, label %51

49:                                               ; preds = %47
  %50 = tail call fastcc i32 @Gia_ManAppendCi(ptr noundef nonnull %3)
  br label %.sink.split

51:                                               ; preds = %47
  %.not.i47 = icmp ne i64 %26, 0
  %narrow.i48 = and i1 %.not.i47, %28
  br i1 %narrow.i48, label %52, label %62

52:                                               ; preds = %51
  %53 = sub nsw i64 0, %27
  %54 = getelementptr inbounds %struct.Gia_Obj_t_, ptr %25, i64 %53, i32 1
  %55 = load i32, ptr %54, align 4, !tbaa !64
  %56 = trunc i64 %.val40 to i32
  %57 = lshr i32 %56, 29
  %58 = and i32 %57, 1
  %59 = xor i32 %55, %58
  %60 = tail call fastcc i32 @Gia_ManAppendCo(ptr noundef nonnull %3, i32 noundef %59)
  br label %.sink.split

.sink.split:                                      ; preds = %29, %52, %49
  %.sink = phi i32 [ %50, %49 ], [ %60, %52 ], [ %46, %29 ]
  %61 = getelementptr inbounds nuw i8, ptr %25, i64 8
  store i32 %.sink, ptr %61, align 4, !tbaa !64
  br label %62

62:                                               ; preds = %.sink.split, %51
  %63 = trunc nuw nsw i64 %indvars.iv to i32
  %64 = urem i32 %63, 10000
  %65 = icmp eq i32 %64, 0
  br i1 %65, label %66, label %68

66:                                               ; preds = %62
  %67 = tail call i32 (ptr, ...) @printf(ptr noundef nonnull dereferenceable(1) @.str.1, i32 noundef %63)
  br label %68

68:                                               ; preds = %62, %66
  %indvars.iv.next = add nuw nsw i64 %indvars.iv, 1
  %69 = load i32, ptr %2, align 8, !tbaa !28
  %70 = sext i32 %69 to i64
  %71 = icmp slt i64 %indvars.iv.next, %70
  br i1 %71, label %.lr.ph, label %.critedge, !llvm.loop !66

.critedge:                                        ; preds = %68, %Abc_UtilStrsav.exit44
  tail call void @Gia_ManSuppStop(ptr noundef %22)
  %72 = getelementptr i8, ptr %0, i64 16
  %.val42 = load i32, ptr %72, align 8, !tbaa !67
  tail call void @Gia_ManSetRegNum(ptr noundef nonnull %3, i32 noundef %.val42) #17
  %73 = tail call ptr @Gia_ManCleanup(ptr noundef nonnull %3) #17
  tail call void @Gia_ManStop(ptr noundef nonnull %3) #17
  ret ptr %73
}